target datalayout = "e-m:e-p270:32:32-p271:32:32-p272:64:64-i64:64-i128:128-f80:128-n8:16:32:64-S128"
target triple = "x86_64-pc-linux-gnu"

@.str.15 = private unnamed_addr constant [17 x i8] c"preview/fast/dev\00", align 1
@.str.16 = private unnamed_addr constant [13 x i8] c"preview/fast\00", align 1
@.str.17 = private unnamed_addr constant [12 x i8] c"preview/dev\00", align 1
@.str.18 = private unnamed_addr constant [8 x i8] c"preview\00", align 1
@.str.19 = private unnamed_addr constant [18 x i8] c"preview2/fast/dev\00", align 1
@.str.20 = private unnamed_addr constant [14 x i8] c"preview2/fast\00", align 1
@.str.21 = private unnamed_addr constant [13 x i8] c"preview2/dev\00", align 1
@.str.22 = private unnamed_addr constant [9 x i8] c"preview2\00", align 1
@.str.23 = private unnamed_addr constant [14 x i8] c"full/fast/dev\00", align 1
@.str.24 = private unnamed_addr constant [10 x i8] c"full/fast\00", align 1
@.str.25 = private unnamed_addr constant [9 x i8] c"full/dev\00", align 1
@.str.26 = private unnamed_addr constant [5 x i8] c"full\00", align 1
@.str.27 = private unnamed_addr constant [19 x i8] c"thumbnail/fast/dev\00", align 1
@.str.28 = private unnamed_addr constant [15 x i8] c"thumbnail/fast\00", align 1
@.str.29 = private unnamed_addr constant [14 x i8] c"thumbnail/dev\00", align 1
@.str.30 = private unnamed_addr constant [10 x i8] c"thumbnail\00", align 1
@.str.31 = private unnamed_addr constant [16 x i8] c"export/fast/dev\00", align 1
@.str.32 = private unnamed_addr constant [12 x i8] c"export/fast\00", align 1
@.str.33 = private unnamed_addr constant [11 x i8] c"export/dev\00", align 1
@.str.34 = private unnamed_addr constant [7 x i8] c"export\00", align 1
@.str.35 = private unnamed_addr constant [17 x i8] c"unknown/fast/dev\00", align 1
@.str.36 = private unnamed_addr constant [13 x i8] c"unknown/fast\00", align 1
@.str.37 = private unnamed_addr constant [12 x i8] c"unknown/dev\00", align 1
@.str.38 = private unnamed_addr constant [8 x i8] c"unknown\00", align 1

; Function Attrs: nounwind uwtable
define ptr @dt_dev_pixelpipe_type_to_str(i32 noundef %0) #0 {
  %2 = alloca ptr, align 8
  %3 = alloca i32, align 4
  %4 = alloca i32, align 4
  %5 = alloca i32, align 4
  %6 = alloca i32, align 4
  store i32 %0, ptr %3, align 4, !tbaa !11
  call void @llvm.lifetime.start.p0(i64 4, ptr %4) #17
  %7 = load i32, ptr %3, align 4, !tbaa !11
  %8 = and i32 %7, 256
  store i32 %8, ptr %4, align 4, !tbaa !11
  call void @llvm.lifetime.start.p0(i64 4, ptr %5) #17
  %9 = load i32, ptr %3, align 4, !tbaa !11
  %10 = and i32 %9, 512
  store i32 %10, ptr %5, align 4, !tbaa !11
  %11 = load i32, ptr %3, align 4, !tbaa !11
  %12 = and i32 %11, 31
  switch i32 %12, label %78 [
    i32 4, label %13
    i32 16, label %26
    i32 2, label %39
    i32 8, label %52
    i32 1, label %65
  ]

13:                                               ; preds = %1
  %14 = load i32, ptr %4, align 4, !tbaa !11
  %15 = icmp ne i32 %14, 0
  br i1 %15, label %16, label %20

16:                                               ; preds = %13
  %17 = load i32, ptr %5, align 4, !tbaa !11
  %18 = icmp ne i32 %17, 0
  %19 = select i1 %18, ptr @.str.15, ptr @.str.16
  br label %24

20:                                               ; preds = %13
  %21 = load i32, ptr %5, align 4, !tbaa !11
  %22 = icmp ne i32 %21, 0
  %23 = select i1 %22, ptr @.str.17, ptr @.str.18
  br label %24

24:                                               ; preds = %20, %16
  %25 = phi ptr [ %19, %16 ], [ %23, %20 ]
  store ptr %25, ptr %2, align 8
  store i32 1, ptr %6, align 4
  br label %91

26:                                               ; preds = %1
  %27 = load i32, ptr %4, align 4, !tbaa !11
  %28 = icmp ne i32 %27, 0
  br i1 %28, label %29, label %33

29:                                               ; preds = %26
  %30 = load i32, ptr %5, align 4, !tbaa !11
  %31 = icmp ne i32 %30, 0
  %32 = select i1 %31, ptr @.str.19, ptr @.str.20
  br label %37

33:                                               ; preds = %26
  %34 = load i32, ptr %5, align 4, !tbaa !11
  %35 = icmp ne i32 %34, 0
  %36 = select i1 %35, ptr @.str.21, ptr @.str.22
  br label %37

37:                                               ; preds = %33, %29
  %38 = phi ptr [ %32, %29 ], [ %36, %33 ]
  store ptr %38, ptr %2, align 8
  store i32 1, ptr %6, align 4
  br label %91

39:                                               ; preds = %1
  %40 = load i32, ptr %4, align 4, !tbaa !11
  %41 = icmp ne i32 %40, 0
  br i1 %41, label %42, label %46

42:                                               ; preds = %39
  %43 = load i32, ptr %5, align 4, !tbaa !11
  %44 = icmp ne i32 %43, 0
  %45 = select i1 %44, ptr @.str.23, ptr @.str.24
  br label %50

46:                                               ; preds = %39
  %47 = load i32, ptr %5, align 4, !tbaa !11
  %48 = icmp ne i32 %47, 0
  %49 = select i1 %48, ptr @.str.25, ptr @.str.26
  br label %50

50:                                               ; preds = %46, %42
  %51 = phi ptr [ %45, %42 ], [ %49, %46 ]
  store ptr %51, ptr %2, align 8
  store i32 1, ptr %6, align 4
  br label %91

52:                                               ; preds = %1
  %53 = load i32, ptr %4, align 4, !tbaa !11
  %54 = icmp ne i32 %53, 0
  br i1 %54, label %55, label %59

55:                                               ; preds = %52
  %56 = load i32, ptr %5, align 4, !tbaa !11
  %57 = icmp ne i32 %56, 0
  %58 = select i1 %57, ptr @.str.27, ptr @.str.28
  br label %63

59:                                               ; preds = %52
  %60 = load i32, ptr %5, align 4, !tbaa !11
  %61 = icmp ne i32 %60, 0
  %62 = select i1 %61, ptr @.str.29, ptr @.str.30
  br label %63

63:                                               ; preds = %59, %55
  %64 = phi ptr [ %58, %55 ], [ %62, %59 ]
  store ptr %64, ptr %2, align 8
  store i32 1, ptr %6, align 4
  br label %91

65:                                               ; preds = %1
  %66 = load i32, ptr %4, align 4, !tbaa !11
  %67 = icmp ne i32 %66, 0
  br i1 %67, label %68, label %72

68:                                               ; preds = %65
  %69 = load i32, ptr %5, align 4, !tbaa !11
  %70 = icmp ne i32 %69, 0
  %71 = select i1 %70, ptr @.str.31, ptr @.str.32
  br label %76

72:                                               ; preds = %65
  %73 = load i32, ptr %5, align 4, !tbaa !11
  %74 = icmp ne i32 %73, 0
  %75 = select i1 %74, ptr @.str.33, ptr @.str.34
  br label %76

76:                                               ; preds = %72, %68
  %77 = phi ptr [ %71, %68 ], [ %75, %72 ]
  store ptr %77, ptr %2, align 8
  store i32 1, ptr %6, align 4
  br label %91

78:                                               ; preds = %1
  %79 = load i32, ptr %4, align 4, !tbaa !11
  %80 = icmp ne i32 %79, 0
  br i1 %80, label %81, label %85

81:                                               ; preds = %78
  %82 = load i32, ptr %5, align 4, !tbaa !11
  %83 = icmp ne i32 %82, 0
  %84 = select i1 %83, ptr @.str.35, ptr @.str.36
  br label %89

85:                                               ; preds = %78
  %86 = load i32, ptr %5, align 4, !tbaa !11
  %87 = icmp ne i32 %86, 0
  %88 = select i1 %87, ptr @.str.37, ptr @.str.38
  br label %89

89:                                               ; preds = %85, %81
  %90 = phi ptr [ %84, %81 ], [ %88, %85 ]
  store ptr %90, ptr %2, align 8
  store i32 1, ptr %6, align 4
  br label %91

91:                                               ; preds = %89, %76, %63, %50, %37, %24
  call void @llvm.lifetime.end.p0(i64 4, ptr %5) #17
  call void @llvm.lifetime.end.p0(i64 4, ptr %4) #17
  %92 = load ptr, ptr %2, align 8
  ret ptr %92
}