; Function Attrs: mustprogress nofree norecurse nosync nounwind willreturn memory(none) uwtable
define noundef nonnull ptr @dt_dev_pixelpipe_type_to_str(i32 noundef %0) local_unnamed_addr #9 {
  %2 = and i32 %0, 256
  %3 = and i32 %0, 512
  %4 = and i32 %0, 31
  %.not35 = icmp eq i32 %2, 0
  %.not37 = icmp eq i32 %3, 0
  switch i32 %4, label %25 [
    i32 4, label %5
    i32 16, label %9
    i32 2, label %13
    i32 8, label %17
    i32 1, label %21
  ]

5:                                                ; preds = %1
  %6 = select i1 %.not37, ptr @.str.16, ptr @.str.15
  %7 = select i1 %.not37, ptr @.str.18, ptr @.str.17
  %8 = select i1 %.not35, ptr %7, ptr %6
  br label %29

9:                                                ; preds = %1
  %10 = select i1 %.not37, ptr @.str.20, ptr @.str.19
  %11 = select i1 %.not37, ptr @.str.22, ptr @.str.21
  %12 = select i1 %.not35, ptr %11, ptr %10
  br label %29

13:                                               ; preds = %1
  %14 = select i1 %.not37, ptr @.str.24, ptr @.str.23
  %15 = select i1 %.not37, ptr @.str.26, ptr @.str.25
  %16 = select i1 %.not35, ptr %15, ptr %14
  br label %29

17:                                               ; preds = %1
  %18 = select i1 %.not37, ptr @.str.28, ptr @.str.27
  %19 = select i1 %.not37, ptr @.str.30, ptr @.str.29
  %20 = select i1 %.not35, ptr %19, ptr %18
  br label %29

21:                                               ; preds = %1
  %22 = select i1 %.not37, ptr @.str.32, ptr @.str.31
  %23 = select i1 %.not37, ptr @.str.34, ptr @.str.33
  %24 = select i1 %.not35, ptr %23, ptr %22
  br label %29

25:                                               ; preds = %1
  %26 = select i1 %.not37, ptr @.str.36, ptr @.str.35
  %27 = select i1 %.not37, ptr @.str.38, ptr @.str.37
  %28 = select i1 %.not35, ptr %27, ptr %26
  br label %29

29:                                               ; preds = %25, %21, %17, %13, %9, %5
  %.0 = phi ptr [ %28, %25 ], [ %24, %21 ], [ %20, %17 ], [ %16, %13 ], [ %12, %9 ], [ %8, %5 ]
  ret ptr %.0
}